target datalayout = "e-m:e-p270:32:32-p271:32:32-p272:64:64-i64:64-i128:128-f80:128-n8:16:32:64-S128"
target triple = "x86_64-pc-linux-gnu"

%"class.OpenSubdiv::v3_6_0::Far::PatchDescriptor" = type { i32 }
%"class.OpenSubdiv::v3_6_0::Far::PatchTable" = type <{ i32, i32, %"class.std::vector", %"class.std::vector.0", %"class.std::vector.5", %"class.std::vector.10", %"class.std::vector.0", %"class.OpenSubdiv::v3_6_0::Far::PatchTable::StencilTablePtr", %"class.OpenSubdiv::v3_6_0::Far::PatchTable::StencilTablePtr", %"class.OpenSubdiv::v3_6_0::Far::PatchDescriptor", [4 x i8], %"class.std::vector.0", %"class.std::vector.15", %"class.std::vector.20", %"class.std::vector.0", %"class.std::vector.25", i8, [7 x i8] }>
%"class.std::vector" = type { %"struct.std::_Vector_base" }
%"struct.std::_Vector_base" = type { %"struct.std::_Vector_base<OpenSubdiv::v3_6_0::Far::PatchTable::PatchArray, std::allocator<OpenSubdiv::v3_6_0::Far::PatchTable::PatchArray>>::_Vector_impl" }
%"struct.std::_Vector_base<OpenSubdiv::v3_6_0::Far::PatchTable::PatchArray, std::allocator<OpenSubdiv::v3_6_0::Far::PatchTable::PatchArray>>::_Vector_impl" = type { %"struct.std::_Vector_base<OpenSubdiv::v3_6_0::Far::PatchTable::PatchArray, std::allocator<OpenSubdiv::v3_6_0::Far::PatchTable::PatchArray>>::_Vector_impl_data" }
%"struct.std::_Vector_base<OpenSubdiv::v3_6_0::Far::PatchTable::PatchArray, std::allocator<OpenSubdiv::v3_6_0::Far::PatchTable::PatchArray>>::_Vector_impl_data" = type { ptr, ptr, ptr }
%"class.std::vector.5" = type { %"struct.std::_Vector_base.6" }
%"struct.std::_Vector_base.6" = type { %"struct.std::_Vector_base<OpenSubdiv::v3_6_0::Far::PatchParam, std::allocator<OpenSubdiv::v3_6_0::Far::PatchParam>>::_Vector_impl" }
%"struct.std::_Vector_base<OpenSubdiv::v3_6_0::Far::PatchParam, std::allocator<OpenSubdiv::v3_6_0::Far::PatchParam>>::_Vector_impl" = type { %"struct.std::_Vector_base<OpenSubdiv::v3_6_0::Far::PatchParam, std::allocator<OpenSubdiv::v3_6_0::Far::PatchParam>>::_Vector_impl_data" }
%"struct.std::_Vector_base<OpenSubdiv::v3_6_0::Far::PatchParam, std::allocator<OpenSubdiv::v3_6_0::Far::PatchParam>>::_Vector_impl_data" = type { ptr, ptr, ptr }
%"class.std::vector.10" = type { %"struct.std::_Vector_base.11" }
%"struct.std::_Vector_base.11" = type { %"struct.std::_Vector_base<unsigned int, std::allocator<unsigned int>>::_Vector_impl" }
%"struct.std::_Vector_base<unsigned int, std::allocator<unsigned int>>::_Vector_impl" = type { %"struct.std::_Vector_base<unsigned int, std::allocator<unsigned int>>::_Vector_impl_data" }
%"struct.std::_Vector_base<unsigned int, std::allocator<unsigned int>>::_Vector_impl_data" = type { ptr, ptr, ptr }
%"class.OpenSubdiv::v3_6_0::Far::PatchTable::StencilTablePtr" = type { %union.anon }
%union.anon = type { ptr }
%"class.std::vector.15" = type { %"struct.std::_Vector_base.16" }
%"struct.std::_Vector_base.16" = type { %"struct.std::_Vector_base<OpenSubdiv::v3_6_0::Far::PatchTable::FVarPatchChannel, std::allocator<OpenSubdiv::v3_6_0::Far::PatchTable::FVarPatchChannel>>::_Vector_impl" }
%"struct.std::_Vector_base<OpenSubdiv::v3_6_0::Far::PatchTable::FVarPatchChannel, std::allocator<OpenSubdiv::v3_6_0::Far::PatchTable::FVarPatchChannel>>::_Vector_impl" = type { %"struct.std::_Vector_base<OpenSubdiv::v3_6_0::Far::PatchTable::FVarPatchChannel, std::allocator<OpenSubdiv::v3_6_0::Far::PatchTable::FVarPatchChannel>>::_Vector_impl_data" }
%"struct.std::_Vector_base<OpenSubdiv::v3_6_0::Far::PatchTable::FVarPatchChannel, std::allocator<OpenSubdiv::v3_6_0::Far::PatchTable::FVarPatchChannel>>::_Vector_impl_data" = type { ptr, ptr, ptr }
%"class.std::vector.20" = type { %"struct.std::_Vector_base.21" }
%"struct.std::_Vector_base.21" = type { %"struct.std::_Vector_base<OpenSubdiv::v3_6_0::Far::PatchTable::StencilTablePtr, std::allocator<OpenSubdiv::v3_6_0::Far::PatchTable::StencilTablePtr>>::_Vector_impl" }
%"struct.std::_Vector_base<OpenSubdiv::v3_6_0::Far::PatchTable::StencilTablePtr, std::allocator<OpenSubdiv::v3_6_0::Far::PatchTable::StencilTablePtr>>::_Vector_impl" = type { %"struct.std::_Vector_base<OpenSubdiv::v3_6_0::Far::PatchTable::StencilTablePtr, std::allocator<OpenSubdiv::v3_6_0::Far::PatchTable::StencilTablePtr>>::_Vector_impl_data" }
%"struct.std::_Vector_base<OpenSubdiv::v3_6_0::Far::PatchTable::StencilTablePtr, std::allocator<OpenSubdiv::v3_6_0::Far::PatchTable::StencilTablePtr>>::_Vector_impl_data" = type { ptr, ptr, ptr }
%"class.std::vector.0" = type { %"struct.std::_Vector_base.1" }
%"struct.std::_Vector_base.1" = type { %"struct.std::_Vector_base<int, std::allocator<int>>::_Vector_impl" }
%"struct.std::_Vector_base<int, std::allocator<int>>::_Vector_impl" = type { %"struct.std::_Vector_base<int, std::allocator<int>>::_Vector_impl_data" }
%"struct.std::_Vector_base<int, std::allocator<int>>::_Vector_impl_data" = type { ptr, ptr, ptr }
%"class.std::vector.25" = type { %"struct.std::_Vector_base.26" }
%"struct.std::_Vector_base.26" = type { %"struct.std::_Vector_base<float, std::allocator<float>>::_Vector_impl" }
%"struct.std::_Vector_base<float, std::allocator<float>>::_Vector_impl" = type { %"struct.std::_Vector_base<float, std::allocator<float>>::_Vector_impl_data" }
%"struct.std::_Vector_base<float, std::allocator<float>>::_Vector_impl_data" = type { ptr, ptr, ptr }
%"struct.OpenSubdiv::v3_6_0::Far::PatchParam" = type { i64 }
%"struct.OpenSubdiv::v3_6_0::Far::PatchTable::PatchArray" = type { %"class.OpenSubdiv::v3_6_0::Far::PatchDescriptor", i32, i32, i32, i32 }
%"struct.OpenSubdiv::v3_6_0::Far::PatchTable::FVarPatchChannel" = type { i32, %"class.OpenSubdiv::v3_6_0::Far::PatchDescriptor", %"class.OpenSubdiv::v3_6_0::Far::PatchDescriptor", i32, %"class.std::vector.0", %"class.std::vector.5" }
%"class.OpenSubdiv::v3_6_0::Vtr::ConstArray.45" = type <{ ptr, i32, [4 x i8] }>

; Function Attrs: mustprogress nounwind uwtable
define linkonce_odr noundef nonnull align 8 dereferenceable(64) ptr @_ZNKSt6vectorIN10OpenSubdiv6v3_6_03Far10PatchTable16FVarPatchChannelESaIS4_EEixEm(ptr noundef nonnull align 8 dereferenceable(24) %0, i64 noundef %1) #5 comdat align 2 {
  %3 = alloca ptr, align 8
  %4 = alloca i64, align 8
  store ptr %0, ptr %3, align 8
  store i64 %1, ptr %4, align 8
  %5 = load ptr, ptr %3, align 8
  %6 = getelementptr inbounds nuw %"struct.std::_Vector_base.16", ptr %5, i32 0, i32 0
  %7 = getelementptr inbounds nuw %"struct.std::_Vector_base<OpenSubdiv::v3_6_0::Far::PatchTable::FVarPatchChannel, std::allocator<OpenSubdiv::v3_6_0::Far::PatchTable::FVarPatchChannel>>::_Vector_impl_data", ptr %6, i32 0, i32 0
  %8 = load ptr, ptr %7, align 8
  %9 = load i64, ptr %4, align 8
  %10 = getelementptr inbounds %"struct.OpenSubdiv::v3_6_0::Far::PatchTable::FVarPatchChannel", ptr %8, i64 %9
  ret ptr %10
}

; Function Attrs: mustprogress nounwind uwtable
define linkonce_odr noundef nonnull align 4 dereferenceable(20) ptr @_ZNKSt6vectorIN10OpenSubdiv6v3_6_03Far10PatchTable10PatchArrayESaIS4_EEixEm(ptr noundef nonnull align 8 dereferenceable(24) %0, i64 noundef %1) #5 comdat align 2 {
  %3 = alloca ptr, align 8
  %4 = alloca i64, align 8
  store ptr %0, ptr %3, align 8
  store i64 %1, ptr %4, align 8
  %5 = load ptr, ptr %3, align 8
  %6 = getelementptr inbounds nuw %"struct.std::_Vector_base", ptr %5, i32 0, i32 0
  %7 = getelementptr inbounds nuw %"struct.std::_Vector_base<OpenSubdiv::v3_6_0::Far::PatchTable::PatchArray, std::allocator<OpenSubdiv::v3_6_0::Far::PatchTable::PatchArray>>::_Vector_impl_data", ptr %6, i32 0, i32 0
  %8 = load ptr, ptr %7, align 8
  %9 = load i64, ptr %4, align 8
  %10 = getelementptr inbounds %"struct.OpenSubdiv::v3_6_0::Far::PatchTable::PatchArray", ptr %8, i64 %9
  ret ptr %10
}

; Function Attrs: mustprogress nounwind uwtable
define linkonce_odr void @_ZN10OpenSubdiv6v3_6_03Vtr10ConstArrayINS0_3Far10PatchParamEEC2EPKS4_i(ptr noundef nonnull align 8 dereferenceable(12) %0, ptr noundef %1, i32 noundef %2) unnamed_addr #5 comdat align 2 {
  %4 = alloca ptr, align 8
  %5 = alloca ptr, align 8
  %6 = alloca i32, align 4
  store ptr %0, ptr %4, align 8
  store ptr %1, ptr %5, align 8
  store i32 %2, ptr %6, align 4
  %7 = load ptr, ptr %4, align 8
  %8 = getelementptr inbounds nuw %"class.OpenSubdiv::v3_6_0::Vtr::ConstArray.45", ptr %7, i32 0, i32 0
  %9 = load ptr, ptr %5, align 8
  store ptr %9, ptr %8, align 8
  %10 = getelementptr inbounds nuw %"class.OpenSubdiv::v3_6_0::Vtr::ConstArray.45", ptr %7, i32 0, i32 1
  %11 = load i32, ptr %6, align 4
  store i32 %11, ptr %10, align 8
  ret void
}

; Function Attrs: mustprogress nounwind uwtable
define linkonce_odr noundef nonnull align 4 dereferenceable(8) ptr @_ZNKSt6vectorIN10OpenSubdiv6v3_6_03Far10PatchParamESaIS3_EEixEm(ptr noundef nonnull align 8 dereferenceable(24) %0, i64 noundef %1) #5 comdat align 2 {
  %3 = alloca ptr, align 8
  %4 = alloca i64, align 8
  store ptr %0, ptr %3, align 8
  store i64 %1, ptr %4, align 8
  %5 = load ptr, ptr %3, align 8
  %6 = getelementptr inbounds nuw %"struct.std::_Vector_base.6", ptr %5, i32 0, i32 0
  %7 = getelementptr inbounds nuw %"struct.std::_Vector_base<OpenSubdiv::v3_6_0::Far::PatchParam, std::allocator<OpenSubdiv::v3_6_0::Far::PatchParam>>::_Vector_impl_data", ptr %6, i32 0, i32 0
  %8 = load ptr, ptr %7, align 8
  %9 = load i64, ptr %4, align 8
  %10 = getelementptr inbounds %"struct.OpenSubdiv::v3_6_0::Far::PatchParam", ptr %8, i64 %9
  ret ptr %10
}

; Function Attrs: mustprogress nounwind uwtable
define linkonce_odr noundef nonnull align 8 dereferenceable(64) ptr @_ZNK10OpenSubdiv6v3_6_03Far10PatchTable19getFVarPatchChannelEi(ptr noundef nonnull align 8 dereferenceable(273) %0, i32 noundef %1) #5 comdat align 2 {
  %3 = alloca ptr, align 8
  %4 = alloca i32, align 4
  store ptr %0, ptr %3, align 8
  store i32 %1, ptr %4, align 4
  %5 = load ptr, ptr %3, align 8
  %6 = getelementptr inbounds nuw %"class.OpenSubdiv::v3_6_0::Far::PatchTable", ptr %5, i32 0, i32 12
  %7 = load i32, ptr %4, align 4
  %8 = sext i32 %7 to i64
  %9 = call noundef nonnull align 8 dereferenceable(64) ptr @_ZNKSt6vectorIN10OpenSubdiv6v3_6_03Far10PatchTable16FVarPatchChannelESaIS4_EEixEm(ptr noundef nonnull align 8 dereferenceable(24) %6, i64 noundef %8) #3
  ret ptr %9
}

; Function Attrs: mustprogress nounwind uwtable
define linkonce_odr noundef nonnull align 4 dereferenceable(20) ptr @_ZNK10OpenSubdiv6v3_6_03Far10PatchTable13getPatchArrayEi(ptr noundef nonnull align 8 dereferenceable(273) %0, i32 noundef %1) #5 comdat align 2 {
  %3 = alloca ptr, align 8
  %4 = alloca i32, align 4
  store ptr %0, ptr %3, align 8
  store i32 %1, ptr %4, align 4
  %5 = load ptr, ptr %3, align 8
  %6 = getelementptr inbounds nuw %"class.OpenSubdiv::v3_6_0::Far::PatchTable", ptr %5, i32 0, i32 2
  %7 = load i32, ptr %4, align 4
  %8 = sext i32 %7 to i64
  %9 = call noundef nonnull align 4 dereferenceable(20) ptr @_ZNKSt6vectorIN10OpenSubdiv6v3_6_03Far10PatchTable10PatchArrayESaIS4_EEixEm(ptr noundef nonnull align 8 dereferenceable(24) %6, i64 noundef %8) #3
  ret ptr %9
}

; Function Attrs: mustprogress uwtable
define { ptr, i32 } @_ZNK10OpenSubdiv6v3_6_03Far10PatchTable28GetPatchArrayFVarPatchParamsEii(ptr noundef nonnull align 8 dereferenceable(273) %0, i32 noundef %1, i32 noundef %2) #4 align 2 {
  %4 = alloca %"class.OpenSubdiv::v3_6_0::Vtr::ConstArray.45", align 8
  %5 = alloca ptr, align 8
  %6 = alloca i32, align 4
  %7 = alloca i32, align 4
  %8 = alloca ptr, align 8
  %9 = alloca ptr, align 8
  store ptr %0, ptr %5, align 8
  store i32 %1, ptr %6, align 4
  store i32 %2, ptr %7, align 4
  %10 = load ptr, ptr %5, align 8
  %11 = load i32, ptr %6, align 4
  %12 = call noundef nonnull align 4 dereferenceable(20) ptr @_ZNK10OpenSubdiv6v3_6_03Far10PatchTable13getPatchArrayEi(ptr noundef nonnull align 8 dereferenceable(273) %10, i32 noundef %11)
  store ptr %12, ptr %8, align 8
  %13 = load i32, ptr %7, align 4
  %14 = call noundef nonnull align 8 dereferenceable(64) ptr @_ZNK10OpenSubdiv6v3_6_03Far10PatchTable19getFVarPatchChannelEi(ptr noundef nonnull align 8 dereferenceable(273) %10, i32 noundef %13)
  store ptr %14, ptr %9, align 8
  %15 = load ptr, ptr %9, align 8
  %16 = getelementptr inbounds nuw %"struct.OpenSubdiv::v3_6_0::Far::PatchTable::FVarPatchChannel", ptr %15, i32 0, i32 5
  %17 = load ptr, ptr %8, align 8
  %18 = getelementptr inbounds nuw %"struct.OpenSubdiv::v3_6_0::Far::PatchTable::PatchArray", ptr %17, i32 0, i32 3
  %19 = load i32, ptr %18, align 4
  %20 = sext i32 %19 to i64
  %21 = call noundef nonnull align 4 dereferenceable(8) ptr @_ZNKSt6vectorIN10OpenSubdiv6v3_6_03Far10PatchParamESaIS3_EEixEm(ptr noundef nonnull align 8 dereferenceable(24) %16, i64 noundef %20) #3
  %22 = load ptr, ptr %8, align 8
  %23 = getelementptr inbounds nuw %"struct.OpenSubdiv::v3_6_0::Far::PatchTable::PatchArray", ptr %22, i32 0, i32 1
  %24 = load i32, ptr %23, align 4
  call void @_ZN10OpenSubdiv6v3_6_03Vtr10ConstArrayINS0_3Far10PatchParamEEC2EPKS4_i(ptr noundef nonnull align 8 dereferenceable(12) %4, ptr noundef %21, i32 noundef %24)
  %25 = load { ptr, i32 }, ptr %4, align 8
  ret { ptr, i32 } %25
}