; Function Attrs: mustprogress nofree norecurse nosync nounwind willreturn memory(read, inaccessiblemem: none) uwtable
define { ptr, i32 } @_ZNK10OpenSubdiv6v3_6_03Far10PatchTable28GetPatchArrayFVarPatchParamsEii(ptr nocapture noundef nonnull readonly align 8 dereferenceable(273) %0, i32 noundef %1, i32 noundef %2) local_unnamed_addr #6 align 2 {
  %4 = getelementptr inbounds nuw i8, ptr %0, i64 8
  %5 = sext i32 %1 to i64
  %6 = load ptr, ptr %4, align 8
  %7 = getelementptr inbounds %"struct.OpenSubdiv::v3_6_0::Far::PatchTable::PatchArray", ptr %6, i64 %5
  %8 = getelementptr inbounds nuw i8, ptr %0, i64 176
  %9 = sext i32 %2 to i64
  %10 = load ptr, ptr %8, align 8
  %11 = getelementptr inbounds %"struct.OpenSubdiv::v3_6_0::Far::PatchTable::FVarPatchChannel", ptr %10, i64 %9, i32 5
  %12 = getelementptr inbounds nuw i8, ptr %7, i64 12
  %13 = load i32, ptr %12, align 4
  %14 = sext i32 %13 to i64
  %15 = load ptr, ptr %11, align 8
  %16 = getelementptr inbounds %"struct.OpenSubdiv::v3_6_0::Far::PatchParam", ptr %15, i64 %14
  %17 = getelementptr inbounds nuw i8, ptr %7, i64 4
  %18 = load i32, ptr %17, align 4
  %.fca.0.insert = insertvalue { ptr, i32 } poison, ptr %16, 0
  %.fca.1.insert = insertvalue { ptr, i32 } %.fca.0.insert, i32 %18, 1
  ret { ptr, i32 } %.fca.1.insert
}